; Function Attrs: mustprogress uwtable
define hidden void @_ZN5osgeo4proj9operation10ConversionC2ERKN7dropbox6oxygen2nnISt10shared_ptrINS1_15OperationMethodEEEERKSt6vectorINS5_IS6_INS1_21GeneralParameterValueEEEESaISF_EE(ptr noundef nonnull align 8 dereferenceable(24) %0, ptr noundef %1, ptr noundef nonnull align 8 dereferenceable(16) %2, ptr noundef nonnull align 8 dereferenceable(24) %3) unnamed_addr #0 align 2 personality ptr @__gxx_personality_v0 {
  %5 = getelementptr inbounds nuw i8, ptr %1, i64 8
  tail call void @_ZN5osgeo4proj9operation15SingleOperationC2ERKN7dropbox6oxygen2nnISt10shared_ptrINS1_15OperationMethodEEEE(ptr noundef nonnull align 8 dereferenceable(16) %0, ptr noundef nonnull %5, ptr noundef nonnull align 8 dereferenceable(16) %2)
  %6 = load ptr, ptr %1, align 8
  store ptr %6, ptr %0, align 8, !tbaa !3
  %7 = getelementptr inbounds nuw i8, ptr %1, i64 56
  %8 = load ptr, ptr %7, align 8
  %9 = getelementptr i8, ptr %6, i64 -24
  %10 = load i64, ptr %9, align 8
  %11 = getelementptr inbounds i8, ptr %0, i64 %10
  store ptr %8, ptr %11, align 8, !tbaa !3
  %12 = getelementptr inbounds nuw i8, ptr %1, i64 64
  %13 = load ptr, ptr %12, align 8
  %14 = load ptr, ptr %0, align 8, !tbaa !3
  %15 = getelementptr i8, ptr %14, i64 -24
  %16 = load i64, ptr %15, align 8
  %17 = getelementptr i8, ptr %0, i64 %16
  %18 = getelementptr i8, ptr %17, i64 16
  store ptr %13, ptr %18, align 8, !tbaa !3
  %19 = getelementptr inbounds nuw i8, ptr %1, i64 72
  %20 = load ptr, ptr %19, align 8
  %21 = load ptr, ptr %0, align 8, !tbaa !3
  %22 = getelementptr i8, ptr %21, i64 -24
  %23 = load i64, ptr %22, align 8
  %24 = getelementptr i8, ptr %0, i64 %23
  %25 = getelementptr i8, ptr %24, i64 24
  store ptr %20, ptr %25, align 8, !tbaa !3
  %26 = getelementptr inbounds nuw i8, ptr %1, i64 80
  %27 = load ptr, ptr %26, align 8
  %28 = load ptr, ptr %0, align 8, !tbaa !3
  %29 = getelementptr i8, ptr %28, i64 -24
  %30 = load i64, ptr %29, align 8
  %31 = getelementptr i8, ptr %0, i64 %30
  %32 = getelementptr i8, ptr %31, i64 48
  store ptr %27, ptr %32, align 8, !tbaa !3
  %33 = getelementptr inbounds nuw i8, ptr %1, i64 88
  %34 = load ptr, ptr %33, align 8
  %35 = load ptr, ptr %0, align 8, !tbaa !3
  %36 = getelementptr i8, ptr %35, i64 -24
  %37 = load i64, ptr %36, align 8
  %38 = getelementptr i8, ptr %0, i64 %37
  %39 = getelementptr i8, ptr %38, i64 56
  store ptr %34, ptr %39, align 8, !tbaa !3
  %40 = getelementptr inbounds nuw i8, ptr %0, i64 16
  store ptr null, ptr %40, align 8, !tbaa !6
  invoke void @_ZN5osgeo4proj9operation15SingleOperation18setParameterValuesERKSt6vectorIN7dropbox6oxygen2nnISt10shared_ptrINS1_21GeneralParameterValueEEEESaISA_EE(ptr noundef nonnull align 8 dereferenceable(16) %0, ptr noundef nonnull align 8 dereferenceable(24) %3)
          to label %41 unwind label %42

41:                                               ; preds = %4
  ret void

42:                                               ; preds = %4
  %43 = landingpad { ptr, i32 }
          cleanup
  %44 = load ptr, ptr %40, align 8, !tbaa !11
  %.not.i = icmp eq ptr %44, null
  br i1 %.not.i, label %_ZNSt10unique_ptrIN5osgeo4proj9operation10Conversion7PrivateESt14default_deleteIS4_EED2Ev.exit, label %_ZNKSt14default_deleteIN5osgeo4proj9operation10Conversion7PrivateEEclEPS4_.exit.i

_ZNKSt14default_deleteIN5osgeo4proj9operation10Conversion7PrivateEEclEPS4_.exit.i: ; preds = %42
  tail call void @_ZdlPvm(ptr noundef nonnull %44, i64 noundef 1) #31
  br label %_ZNSt10unique_ptrIN5osgeo4proj9operation10Conversion7PrivateESt14default_deleteIS4_EED2Ev.exit

_ZNSt10unique_ptrIN5osgeo4proj9operation10Conversion7PrivateESt14default_deleteIS4_EED2Ev.exit: ; preds = %42, %_ZNKSt14default_deleteIN5osgeo4proj9operation10Conversion7PrivateEEclEPS4_.exit.i
  store ptr null, ptr %40, align 8, !tbaa !11
  tail call void @_ZN5osgeo4proj9operation15SingleOperationD2Ev(ptr noundef nonnull align 8 dereferenceable(16) %0, ptr noundef nonnull %5) #32
  resume { ptr, i32 } %43
}